target datalayout = "e-m:e-p270:32:32-p271:32:32-p272:64:64-i64:64-i128:128-f80:128-n8:16:32:64-S128"
target triple = "x86_64-pc-linux-gnu"

%struct.ZSTD_Sequence = type { i32, i32, i32, i32 }
%struct.BlockSummary = type { i64, i64, i64 }

; Function Attrs: nounwind uwtable
define void @ZSTD_get1BlockSummary(ptr dead_on_unwind noalias writable sret(%struct.BlockSummary) align 8 %0, ptr noundef %1, i64 noundef %2) #0 {
  %4 = alloca ptr, align 8
  %5 = alloca i64, align 8
  %6 = alloca i64, align 8
  %7 = alloca i64, align 8
  %8 = alloca i64, align 8
  %9 = alloca i32, align 4
  store ptr %1, ptr %4, align 8, !tbaa !15
  store i64 %2, ptr %5, align 8, !tbaa !3
  call void @llvm.lifetime.start.p0(i64 8, ptr %6) #15
  store i64 0, ptr %6, align 8, !tbaa !3
  call void @llvm.lifetime.start.p0(i64 8, ptr %7) #15
  store i64 0, ptr %7, align 8, !tbaa !3
  call void @llvm.lifetime.start.p0(i64 8, ptr %8) #15
  store i64 0, ptr %8, align 8, !tbaa !3
  br label %10

10:                                               ; preds = %39, %3
  %11 = load i64, ptr %8, align 8, !tbaa !3
  %12 = load i64, ptr %5, align 8, !tbaa !3
  %13 = icmp ult i64 %11, %12
  br i1 %13, label %14, label %42

14:                                               ; preds = %10
  %15 = load ptr, ptr %4, align 8, !tbaa !15
  %16 = load i64, ptr %8, align 8, !tbaa !3
  %17 = getelementptr inbounds nuw %struct.ZSTD_Sequence, ptr %15, i64 %16
  %18 = getelementptr inbounds nuw %struct.ZSTD_Sequence, ptr %17, i32 0, i32 2
  %19 = load i32, ptr %18, align 4, !tbaa !66
  %20 = zext i32 %19 to i64
  %21 = load i64, ptr %6, align 8, !tbaa !3
  %22 = add i64 %21, %20
  store i64 %22, ptr %6, align 8, !tbaa !3
  %23 = load ptr, ptr %4, align 8, !tbaa !15
  %24 = load i64, ptr %8, align 8, !tbaa !3
  %25 = getelementptr inbounds nuw %struct.ZSTD_Sequence, ptr %23, i64 %24
  %26 = getelementptr inbounds nuw %struct.ZSTD_Sequence, ptr %25, i32 0, i32 1
  %27 = load i32, ptr %26, align 4, !tbaa !72
  %28 = zext i32 %27 to i64
  %29 = load i64, ptr %7, align 8, !tbaa !3
  %30 = add i64 %29, %28
  store i64 %30, ptr %7, align 8, !tbaa !3
  %31 = load ptr, ptr %4, align 8, !tbaa !15
  %32 = load i64, ptr %8, align 8, !tbaa !3
  %33 = getelementptr inbounds nuw %struct.ZSTD_Sequence, ptr %31, i64 %32
  %34 = getelementptr inbounds nuw %struct.ZSTD_Sequence, ptr %33, i32 0, i32 2
  %35 = load i32, ptr %34, align 4, !tbaa !66
  %36 = icmp eq i32 %35, 0
  br i1 %36, label %37, label %38

37:                                               ; preds = %14
  br label %42

38:                                               ; preds = %14
  br label %39

39:                                               ; preds = %38
  %40 = load i64, ptr %8, align 8, !tbaa !3
  %41 = add i64 %40, 1
  store i64 %41, ptr %8, align 8, !tbaa !3
  br label %10, !llvm.loop !326

42:                                               ; preds = %37, %10
  %43 = load i64, ptr %8, align 8, !tbaa !3
  %44 = load i64, ptr %5, align 8, !tbaa !3
  %45 = icmp eq i64 %43, %44
  br i1 %45, label %46, label %48

46:                                               ; preds = %42
  %47 = getelementptr inbounds nuw %struct.BlockSummary, ptr %0, i32 0, i32 0
  store i64 -107, ptr %47, align 8, !tbaa !327
  store i32 1, ptr %9, align 4
  br label %58

48:                                               ; preds = %42
  %49 = load i64, ptr %8, align 8, !tbaa !3
  %50 = add i64 %49, 1
  %51 = getelementptr inbounds nuw %struct.BlockSummary, ptr %0, i32 0, i32 0
  store i64 %50, ptr %51, align 8, !tbaa !327
  %52 = load i64, ptr %7, align 8, !tbaa !3
  %53 = load i64, ptr %6, align 8, !tbaa !3
  %54 = add i64 %52, %53
  %55 = getelementptr inbounds nuw %struct.BlockSummary, ptr %0, i32 0, i32 1
  store i64 %54, ptr %55, align 8, !tbaa !329
  %56 = load i64, ptr %7, align 8, !tbaa !3
  %57 = getelementptr inbounds nuw %struct.BlockSummary, ptr %0, i32 0, i32 2
  store i64 %56, ptr %57, align 8, !tbaa !330
  store i32 1, ptr %9, align 4
  br label %58

58:                                               ; preds = %48, %46
  call void @llvm.lifetime.end.p0(i64 8, ptr %8) #15
  call void @llvm.lifetime.end.p0(i64 8, ptr %7) #15
  call void @llvm.lifetime.end.p0(i64 8, ptr %6) #15
  ret void
}