; Function Attrs: nofree norecurse nosync nounwind memory(argmem: readwrite) uwtable
define void @ZSTD_get1BlockSummary(ptr dead_on_unwind noalias writable writeonly sret(%struct.BlockSummary) align 8 captures(none) %0, ptr noundef readonly captures(none) %1, i64 noundef %2) local_unnamed_addr #13 {
  %.not = icmp eq i64 %2, 0
  br i1 %.not, label %._crit_edge, label %.lr.ph

.lr.ph:                                           ; preds = %3, %14
  %.021 = phi i64 [ %15, %14 ], [ 0, %3 ]
  %.01620 = phi i64 [ %12, %14 ], [ 0, %3 ]
  %.01719 = phi i64 [ %8, %14 ], [ 0, %3 ]
  %4 = getelementptr inbounds nuw %struct.ZSTD_Sequence, ptr %1, i64 %.021
  %5 = getelementptr inbounds nuw i8, ptr %4, i64 8
  %6 = load i32, ptr %5, align 4, !tbaa !212
  %7 = zext i32 %6 to i64
  %8 = add i64 %.01719, %7
  %9 = getelementptr inbounds nuw i8, ptr %4, i64 4
  %10 = load i32, ptr %9, align 4, !tbaa !213
  %11 = zext i32 %10 to i64
  %12 = add i64 %.01620, %11
  %13 = icmp eq i32 %6, 0
  br i1 %13, label %._crit_edge, label %14

14:                                               ; preds = %.lr.ph
  %15 = add nuw i64 %.021, 1
  %exitcond.not = icmp eq i64 %15, %2
  br i1 %exitcond.not, label %._crit_edge.thread, label %.lr.ph, !llvm.loop !352

._crit_edge:                                      ; preds = %.lr.ph, %3
  %.0.lcssa = phi i64 [ 0, %3 ], [ %.021, %.lr.ph ]
  %.118 = phi i64 [ 0, %3 ], [ %8, %.lr.ph ]
  %.1 = phi i64 [ 0, %3 ], [ %12, %.lr.ph ]
  %16 = icmp eq i64 %.0.lcssa, %2
  br i1 %16, label %._crit_edge.thread, label %17

17:                                               ; preds = %._crit_edge
  %18 = add i64 %.0.lcssa, 1
  %19 = add i64 %.1, %.118
  %20 = getelementptr inbounds nuw i8, ptr %0, i64 8
  store i64 %19, ptr %20, align 8, !tbaa !353
  %21 = getelementptr inbounds nuw i8, ptr %0, i64 16
  store i64 %.1, ptr %21, align 8, !tbaa !355
  br label %._crit_edge.thread

._crit_edge.thread:                               ; preds = %14, %._crit_edge, %17
  %.sink = phi i64 [ %18, %17 ], [ -107, %._crit_edge ], [ -107, %14 ]
  store i64 %.sink, ptr %0, align 8, !tbaa !356
  ret void
}